; ModuleID = '23/1253.c'
source_filename = "23/1253.c"
target datalayout = "e-m:e-p270:32:32-p271:32:32-p272:64:64-i64:64-f80:128-n8:16:32:64-S128"
target triple = "x86_64-pc-linux-gnu"

@.str = private unnamed_addr constant [3 x i8] c"%s\00", align 1
@.str.1 = private unnamed_addr constant [4 x i8] c"%s \00", align 1

; Function Attrs: noinline nounwind uwtable
define dso_local i32 @main() #0 {
  %1 = alloca i32, align 4
  %2 = alloca [100 x [102 x i8]], align 16
  %3 = alloca i32, align 4
  %4 = alloca i32, align 4
  %5 = alloca i32, align 4
  %6 = alloca i32, align 4
  %7 = alloca i32, align 4
  %8 = alloca [102 x i8], align 16
  store i32 0, i32* %1, align 4
  store i32 0, i32* %5, align 4
  store i32 0, i32* %7, align 4
  store i32 0, i32* %3, align 4
  br label %9

9:                                                ; preds = %27, %0
  %10 = load i32, i32* %3, align 4
  %11 = icmp slt i32 %10, 100
  br i1 %11, label %12, label %30

12:                                               ; preds = %9
  store i32 0, i32* %4, align 4
  br label %13

13:                                               ; preds = %23, %12
  %14 = load i32, i32* %4, align 4
  %15 = icmp slt i32 %14, 102
  br i1 %15, label %16, label %26

16:                                               ; preds = %13
  %17 = load i32, i32* %3, align 4
  %18 = sext i32 %17 to i64
  %19 = getelementptr inbounds [100 x [102 x i8]], [100 x [102 x i8]]* %2, i64 0, i64 %18
  %20 = load i32, i32* %4, align 4
  %21 = sext i32 %20 to i64
  %22 = getelementptr inbounds [102 x i8], [102 x i8]* %19, i64 0, i64 %21
  store i8 0, i8* %22, align 1
  br label %23

23:                                               ; preds = %16
  %24 = load i32, i32* %4, align 4
  %25 = add nsw i32 %24, 1
  store i32 %25, i32* %4, align 4
  br label %13

26:                                               ; preds = %13
  br label %27

27:                                               ; preds = %26
  %28 = load i32, i32* %3, align 4
  %29 = add nsw i32 %28, 1
  store i32 %29, i32* %3, align 4
  br label %9

30:                                               ; preds = %9
  %31 = getelementptr inbounds [102 x i8], [102 x i8]* %8, i64 0, i64 0
  %32 = call i32 (i8*, ...) bitcast (i32 (...)* @gets to i32 (i8*, ...)*)(i8* %31)
  store i32 0, i32* %3, align 4
  br label %33

33:                                               ; preds = %81, %30
  store i32 0, i32* %4, align 4
  br label %34

34:                                               ; preds = %73, %33
  %35 = load i32, i32* %5, align 4
  %36 = load i32, i32* %4, align 4
  %37 = add nsw i32 %35, %36
  %38 = sext i32 %37 to i64
  %39 = getelementptr inbounds [102 x i8], [102 x i8]* %8, i64 0, i64 %38
  %40 = load i8, i8* %39, align 1
  %41 = sext i8 %40 to i32
  %42 = icmp eq i32 %41, 0
  br i1 %42, label %43, label %44

43:                                               ; preds = %34
  store i32 1, i32* %7, align 4
  br label %76

44:                                               ; preds = %34
  %45 = load i32, i32* %5, align 4
  %46 = load i32, i32* %4, align 4
  %47 = add nsw i32 %45, %46
  %48 = sext i32 %47 to i64
  %49 = getelementptr inbounds [102 x i8], [102 x i8]* %8, i64 0, i64 %48
  %50 = load i8, i8* %49, align 1
  %51 = sext i8 %50 to i32
  %52 = icmp ne i32 %51, 32
  br i1 %52, label %53, label %66

53:                                               ; preds = %44
  %54 = load i32, i32* %5, align 4
  %55 = load i32, i32* %4, align 4
  %56 = add nsw i32 %54, %55
  %57 = sext i32 %56 to i64
  %58 = getelementptr inbounds [102 x i8], [102 x i8]* %8, i64 0, i64 %57
  %59 = load i8, i8* %58, align 1
  %60 = load i32, i32* %3, align 4
  %61 = sext i32 %60 to i64
  %62 = getelementptr inbounds [100 x [102 x i8]], [100 x [102 x i8]]* %2, i64 0, i64 %61
  %63 = load i32, i32* %4, align 4
  %64 = sext i32 %63 to i64
  %65 = getelementptr inbounds [102 x i8], [102 x i8]* %62, i64 0, i64 %64
  store i8 %59, i8* %65, align 1
  br label %71

66:                                               ; preds = %44
  %67 = load i32, i32* %5, align 4
  %68 = load i32, i32* %4, align 4
  %69 = add nsw i32 %67, %68
  %70 = add nsw i32 %69, 1
  store i32 %70, i32* %5, align 4
  br label %76

71:                                               ; preds = %53
  br label %72

72:                                               ; preds = %71
  br label %73

73:                                               ; preds = %72
  %74 = load i32, i32* %4, align 4
  %75 = add nsw i32 %74, 1
  store i32 %75, i32* %4, align 4
  br label %34

76:                                               ; preds = %66, %43
  %77 = load i32, i32* %7, align 4
  %78 = icmp eq i32 %77, 1
  br i1 %78, label %79, label %80

79:                                               ; preds = %76
  br label %84

80:                                               ; preds = %76
  br label %81

81:                                               ; preds = %80
  %82 = load i32, i32* %3, align 4
  %83 = add nsw i32 %82, 1
  store i32 %83, i32* %3, align 4
  br label %33

84:                                               ; preds = %79
  %85 = load i32, i32* %3, align 4
  store i32 %85, i32* %6, align 4
  %86 = load i32, i32* %6, align 4
  store i32 %86, i32* %3, align 4
  br label %87

87:                                               ; preds = %106, %84
  %88 = load i32, i32* %3, align 4
  %89 = icmp sge i32 %88, 0
  br i1 %89, label %90, label %109

90:                                               ; preds = %87
  %91 = load i32, i32* %3, align 4
  %92 = icmp eq i32 %91, 0
  br i1 %92, label %93, label %99

93:                                               ; preds = %90
  %94 = load i32, i32* %3, align 4
  %95 = sext i32 %94 to i64
  %96 = getelementptr inbounds [100 x [102 x i8]], [100 x [102 x i8]]* %2, i64 0, i64 %95
  %97 = getelementptr inbounds [102 x i8], [102 x i8]* %96, i64 0, i64 0
  %98 = call i32 (i8*, ...) @printf(i8* getelementptr inbounds ([3 x i8], [3 x i8]* @.str, i64 0, i64 0), i8* %97)
  br label %105

99:                                               ; preds = %90
  %100 = load i32, i32* %3, align 4
  %101 = sext i32 %100 to i64
  %102 = getelementptr inbounds [100 x [102 x i8]], [100 x [102 x i8]]* %2, i64 0, i64 %101
  %103 = getelementptr inbounds [102 x i8], [102 x i8]* %102, i64 0, i64 0
  %104 = call i32 (i8*, ...) @printf(i8* getelementptr inbounds ([4 x i8], [4 x i8]* @.str.1, i64 0, i64 0), i8* %103)
  br label %105

105:                                              ; preds = %99, %93
  br label %106

106:                                              ; preds = %105
  %107 = load i32, i32* %3, align 4
  %108 = add nsw i32 %107, -1
  store i32 %108, i32* %3, align 4
  br label %87

109:                                              ; preds = %87
  %110 = load i32, i32* %1, align 4
  ret i32 %110
}

declare dso_local i32 @gets(...) #1

declare dso_local i32 @printf(i8*, ...) #1


!llvm.module.flags = !{!0}
!llvm.ident = !{!1}

!0 = !{i32 1, !"wchar_size", i32 4}
!1 = !{!"clang version 10.0.0-4ubuntu1 "}
